; Function Attrs: mustprogress uwtable
define internal fastcc void @"_ZZZN8WasmEdge8Executor8Executor7executeERNS_7Runtime12StackManagerEPKNS_3AST11InstructionES8_ENK3$_0clEvENKUlvE0_clEv"(ptr dead_on_unwind noalias nonnull writable align 8 initializes((0, 1)) %0, ptr noundef nonnull readonly align 8 captures(none) dereferenceable(24) %1) unnamed_addr #0 align 2 {
  %3 = getelementptr inbounds nuw i8, ptr %1, i64 16
  %4 = load ptr, ptr %3, align 8
  %5 = load ptr, ptr %1, align 8
  %6 = getelementptr inbounds nuw i8, ptr %1, i64 8
  %7 = load ptr, ptr %6, align 8
  %8 = getelementptr inbounds nuw i8, ptr %7, i64 4
  %9 = load i32, ptr %8, align 4
  %10 = tail call noundef ptr @_ZNK8WasmEdge8Executor8Executor15getDefTypeByIdxERNS_7Runtime12StackManagerEj(ptr noundef nonnull align 8 dereferenceable(408) %4, ptr noundef nonnull align 8 dereferenceable(48) %5, i32 noundef %9)
  %11 = getelementptr inbounds nuw i8, ptr %10, i64 32
  %12 = load i8, ptr %11, align 8
  store i8 %12, ptr %0, align 8
  %13 = getelementptr inbounds nuw i8, ptr %0, i64 8
  %14 = getelementptr inbounds nuw i8, ptr %10, i64 40
  tail call void @_ZNSt8__detail9__variant15_Copy_ctor_baseILb0EJSt6vectorIN8WasmEdge3AST9FieldTypeESaIS5_EENS4_12FunctionTypeEEEC2ERKS9_(ptr noundef nonnull align 8 dereferenceable(73) %13, ptr noundef nonnull align 8 dereferenceable(73) %14)
  ret void
}